target datalayout = "e-m:e-p270:32:32-p271:32:32-p272:64:64-i64:64-i128:128-f80:128-n8:16:32:64-S128"
target triple = "x86_64-pc-linux-gnu"

@_ZN12HotSpotJVMCI14HotSpotNmethod25_compileIdSnapshot_offsetE = hidden global i32 0, align 4
@.str.45 = private unnamed_addr constant [18 x i8] c"compileIdSnapshot\00", align 1

; Function Attrs: mustprogress nounwind uwtable
define linkonce_odr hidden noundef i64 @_Z13cast_from_oopIlET_P7oopDesc(ptr noundef %0) #1 comdat {
  %2 = alloca ptr, align 8
  store ptr %0, ptr %2, align 8
  %3 = load ptr, ptr %2, align 8
  %4 = ptrtoint ptr %3 to i64
  ret i64 %4
}

; Function Attrs: mustprogress nounwind uwtable
define linkonce_odr hidden noundef ptr @_ZNK7oopDesc6as_oopEv(ptr noundef nonnull align 8 dereferenceable(16) %0) #1 comdat align 2 {
  %2 = alloca ptr, align 8
  store ptr %0, ptr %2, align 8
  %3 = load ptr, ptr %2, align 8
  ret ptr %3
}

; Function Attrs: mustprogress nounwind uwtable
define linkonce_odr hidden noundef ptr @_ZNK7oopDesc10field_addrIlEEPT_i(ptr noundef nonnull align 8 dereferenceable(16) %0, i32 noundef %1) #1 comdat align 2 {
  %3 = alloca ptr, align 8
  %4 = alloca i32, align 4
  store ptr %0, ptr %3, align 8
  store i32 %1, ptr %4, align 4
  %5 = load ptr, ptr %3, align 8
  %6 = call noundef ptr @_ZNK7oopDesc6as_oopEv(ptr noundef nonnull align 8 dereferenceable(16) %5)
  %7 = call noundef i64 @_Z13cast_from_oopIlET_P7oopDesc(ptr noundef %6)
  %8 = load i32, ptr %4, align 4
  %9 = sext i32 %8 to i64
  %10 = add nsw i64 %7, %9
  %11 = inttoptr i64 %10 to ptr
  ret ptr %11
}

; Function Attrs: mustprogress nounwind uwtable
define linkonce_odr hidden noundef i64 @_ZNK7oopDesc10long_fieldEi(ptr noundef nonnull align 8 dereferenceable(16) %0, i32 noundef %1) #1 comdat align 2 {
  %3 = alloca ptr, align 8
  %4 = alloca i32, align 4
  store ptr %0, ptr %3, align 8
  store i32 %1, ptr %4, align 4
  %5 = load ptr, ptr %3, align 8
  %6 = load i32, ptr %4, align 4
  %7 = call noundef ptr @_ZNK7oopDesc10field_addrIlEEPT_i(ptr noundef nonnull align 8 dereferenceable(16) %5, i32 noundef %6)
  %8 = load i64, ptr %7, align 8
  ret i64 %8
}

; Function Attrs: mustprogress nounwind uwtable
define hidden void @_ZN12HotSpotJVMCI14HotSpotNmethod5checkEP7oopDescPKci(ptr noundef %0, ptr noundef %1, i32 noundef %2) #1 align 2 {
  %4 = alloca ptr, align 8
  %5 = alloca ptr, align 8
  %6 = alloca i32, align 4
  store ptr %0, ptr %4, align 8
  store ptr %1, ptr %5, align 8
  store i32 %2, ptr %6, align 4
  ret void
}

; Function Attrs: mustprogress nounwind uwtable
define hidden noundef i64 @_ZN12HotSpotJVMCI14HotSpotNmethod17compileIdSnapshotEP8JVMCIEnvP7oopDesc(ptr noundef %0, ptr noundef %1) #1 align 2 {
  %3 = alloca ptr, align 8
  %4 = alloca ptr, align 8
  store ptr %0, ptr %3, align 8
  store ptr %1, ptr %4, align 8
  %5 = load ptr, ptr %4, align 8
  %6 = load i32, ptr @_ZN12HotSpotJVMCI14HotSpotNmethod25_compileIdSnapshot_offsetE, align 4
  call void @_ZN12HotSpotJVMCI14HotSpotNmethod5checkEP7oopDescPKci(ptr noundef %5, ptr noundef @.str.45, i32 noundef %6)
  %7 = load ptr, ptr %4, align 8
  %8 = load i32, ptr @_ZN12HotSpotJVMCI14HotSpotNmethod25_compileIdSnapshot_offsetE, align 4
  %9 = call noundef i64 @_ZNK7oopDesc10long_fieldEi(ptr noundef nonnull align 8 dereferenceable(16) %7, i32 noundef %8)
  ret i64 %9
}